; Function Attrs: nounwind uwtable
define hidden void @SDL_ClearAudioQueue(ptr noundef captures(none) initializes((8, 16), (24, 32)) %0) local_unnamed_addr #0 {
  %2 = load ptr, ptr %0, align 8
  %3 = getelementptr inbounds nuw i8, ptr %0, i64 24
  store i64 0, ptr %3, align 8
  %.not9 = icmp eq ptr %2, null
  tail call void @llvm.memset.p0.i64(ptr noundef nonnull align 8 dereferenceable(16) %0, i8 0, i64 16, i1 false)
  br i1 %.not9, label %._crit_edge, label %.lr.ph

.lr.ph:                                           ; preds = %1
  %4 = getelementptr inbounds nuw i8, ptr %0, i64 56
  %5 = getelementptr inbounds nuw i8, ptr %0, i64 64
  %6 = getelementptr inbounds nuw i8, ptr %0, i64 40
  br label %7

7:                                                ; preds = %.lr.ph, %DestroyAudioTrack.exit
  %.010 = phi ptr [ %2, %.lr.ph ], [ %9, %DestroyAudioTrack.exit ]
  %8 = getelementptr inbounds nuw i8, ptr %.010, i64 32
  %9 = load ptr, ptr %8, align 8
  %10 = getelementptr inbounds nuw i8, ptr %.010, i64 48
  %11 = load ptr, ptr %10, align 8
  %12 = getelementptr inbounds nuw i8, ptr %.010, i64 40
  %13 = load ptr, ptr %12, align 8
  %14 = getelementptr inbounds nuw i8, ptr %.010, i64 56
  %15 = load ptr, ptr %14, align 8
  %16 = getelementptr inbounds nuw i8, ptr %.010, i64 80
  %17 = load i64, ptr %16, align 8
  %18 = trunc i64 %17 to i32
  tail call void %11(ptr noundef %13, ptr noundef %15, i32 noundef %18) #10
  %19 = load i64, ptr %4, align 8
  %20 = load i64, ptr %5, align 8
  %21 = icmp ult i64 %19, %20
  br i1 %21, label %22, label %26

22:                                               ; preds = %7
  %23 = load ptr, ptr %6, align 8
  store ptr %23, ptr %.010, align 8
  store ptr %.010, ptr %6, align 8
  %24 = load i64, ptr %4, align 8
  %25 = add i64 %24, 1
  store i64 %25, ptr %4, align 8
  br label %DestroyAudioTrack.exit

26:                                               ; preds = %7
  tail call void @SDL_free_REAL(ptr noundef nonnull %.010) #10
  br label %DestroyAudioTrack.exit

DestroyAudioTrack.exit:                           ; preds = %22, %26
  %.not = icmp eq ptr %9, null
  br i1 %.not, label %._crit_edge, label %7, !llvm.loop !3

._crit_edge:                                      ; preds = %DestroyAudioTrack.exit, %1
  ret void
}